target datalayout = "e-m:e-p270:32:32-p271:32:32-p272:64:64-i64:64-i128:128-f80:128-n8:16:32:64-S128"
target triple = "x86_64-pc-linux-gnu"

%struct.Npn_Man_t_ = type { ptr, ptr, i32, i32, i32 }

@.str.1 = private unnamed_addr constant [2 x i8] c"r\00", align 1
@.str.2 = private unnamed_addr constant [37 x i8] c"Cannot open NPN function file \22%s\22.\0A\00", align 1

; Function Attrs: nounwind uwtable
define internal i32 @Abc_PrimeCudd(i32 noundef %0) #0 {
  %2 = alloca i32, align 4
  %3 = alloca i32, align 4
  %4 = alloca i32, align 4
  store i32 %0, ptr %2, align 4
  %5 = load i32, ptr %2, align 4
  %6 = add i32 %5, -1
  store i32 %6, ptr %2, align 4
  br label %7

7:                                                ; preds = %32, %1
  %8 = load i32, ptr %2, align 4
  %9 = add i32 %8, 1
  store i32 %9, ptr %2, align 4
  %10 = load i32, ptr %2, align 4
  %11 = and i32 %10, 1
  %12 = icmp ne i32 %11, 0
  br i1 %12, label %13, label %30

13:                                               ; preds = %7
  store i32 1, ptr %4, align 4
  store i32 3, ptr %3, align 4
  br label %14

14:                                               ; preds = %26, %13
  %15 = load i32, ptr %3, align 4
  %16 = load i32, ptr %3, align 4
  %17 = mul nsw i32 %15, %16
  %18 = load i32, ptr %2, align 4
  %19 = icmp ule i32 %17, %18
  br i1 %19, label %20, label %29

20:                                               ; preds = %14
  %21 = load i32, ptr %2, align 4
  %22 = load i32, ptr %3, align 4
  %23 = urem i32 %21, %22
  %24 = icmp eq i32 %23, 0
  br i1 %24, label %25, label %26

25:                                               ; preds = %20
  store i32 0, ptr %4, align 4
  br label %29

26:                                               ; preds = %20
  %27 = load i32, ptr %3, align 4
  %28 = add nsw i32 %27, 2
  store i32 %28, ptr %3, align 4
  br label %14, !llvm.loop !8

29:                                               ; preds = %25, %14
  br label %31

30:                                               ; preds = %7
  store i32 0, ptr %4, align 4
  br label %31

31:                                               ; preds = %30, %29
  br label %32

32:                                               ; preds = %31
  %33 = load i32, ptr %4, align 4
  %34 = icmp ne i32 %33, 0
  %35 = xor i1 %34, true
  br i1 %35, label %7, label %36, !llvm.loop !9

36:                                               ; preds = %32
  %37 = load i32, ptr %2, align 4
  ret i32 %37
}

; Function Attrs: nounwind uwtable
define ptr @Npn_ManStart(ptr noundef %0) #0 {
  %2 = alloca ptr, align 8
  %3 = alloca ptr, align 8
  %4 = alloca ptr, align 8
  %5 = alloca ptr, align 8
  store ptr %0, ptr %3, align 8
  %6 = call noalias ptr @calloc(i64 noundef 1, i64 noundef 32) #11
  store ptr %6, ptr %4, align 8
  %7 = load ptr, ptr %3, align 8
  %8 = icmp eq ptr %7, null
  br i1 %8, label %9, label %38

9:                                                ; preds = %1
  %10 = load ptr, ptr %4, align 8
  %11 = getelementptr inbounds %struct.Npn_Man_t_, ptr %10, i32 0, i32 3
  store i32 1000000, ptr %11, align 4
  %12 = load ptr, ptr %4, align 8
  %13 = getelementptr inbounds %struct.Npn_Man_t_, ptr %12, i32 0, i32 3
  store i32 100, ptr %13, align 4
  %14 = load ptr, ptr %4, align 8
  %15 = getelementptr inbounds %struct.Npn_Man_t_, ptr %14, i32 0, i32 3
  %16 = load i32, ptr %15, align 4
  %17 = sext i32 %16 to i64
  %18 = mul i64 16, %17
  %19 = call noalias ptr @malloc(i64 noundef %18) #10
  %20 = load ptr, ptr %4, align 8
  %21 = getelementptr inbounds %struct.Npn_Man_t_, ptr %20, i32 0, i32 0
  store ptr %19, ptr %21, align 8
  %22 = load ptr, ptr %4, align 8
  %23 = getelementptr inbounds %struct.Npn_Man_t_, ptr %22, i32 0, i32 3
  %24 = load i32, ptr %23, align 4
  %25 = sdiv i32 %24, 2
  %26 = call i32 @Abc_PrimeCudd(i32 noundef %25)
  %27 = load ptr, ptr %4, align 8
  %28 = getelementptr inbounds %struct.Npn_Man_t_, ptr %27, i32 0, i32 2
  store i32 %26, ptr %28, align 8
  %29 = load ptr, ptr %4, align 8
  %30 = getelementptr inbounds %struct.Npn_Man_t_, ptr %29, i32 0, i32 2
  %31 = load i32, ptr %30, align 8
  %32 = sext i32 %31 to i64
  %33 = call noalias ptr @calloc(i64 noundef %32, i64 noundef 4) #11
  %34 = load ptr, ptr %4, align 8
  %35 = getelementptr inbounds %struct.Npn_Man_t_, ptr %34, i32 0, i32 1
  store ptr %33, ptr %35, align 8
  %36 = load ptr, ptr %4, align 8
  %37 = getelementptr inbounds %struct.Npn_Man_t_, ptr %36, i32 0, i32 4
  store i32 1, ptr %37, align 8
  br label %80

38:                                               ; preds = %1
  %39 = load ptr, ptr %3, align 8
  %40 = call noalias ptr @fopen(ptr noundef %39, ptr noundef @.str.1)
  store ptr %40, ptr %5, align 8
  %41 = load ptr, ptr %5, align 8
  %42 = icmp eq ptr %41, null
  br i1 %42, label %43, label %45

43:                                               ; preds = %38
  %44 = load ptr, ptr %3, align 8
  call void (i32, ptr, ...) @Abc_Print(i32 noundef -1, ptr noundef @.str.2, ptr noundef %44)
  store ptr null, ptr %2, align 8
  br label %82

45:                                               ; preds = %38
  %46 = load ptr, ptr %5, align 8
  %47 = call i32 @fclose(ptr noundef %46)
  %48 = load ptr, ptr %3, align 8
  %49 = call i32 @Extra_FileSize(ptr noundef %48)
  %50 = sdiv i32 %49, 20
  %51 = mul nsw i32 4, %50
  %52 = load ptr, ptr %4, align 8
  %53 = getelementptr inbounds %struct.Npn_Man_t_, ptr %52, i32 0, i32 3
  store i32 %51, ptr %53, align 4
  %54 = load ptr, ptr %4, align 8
  %55 = getelementptr inbounds %struct.Npn_Man_t_, ptr %54, i32 0, i32 3
  %56 = load i32, ptr %55, align 4
  %57 = sext i32 %56 to i64
  %58 = mul i64 16, %57
  %59 = call noalias ptr @malloc(i64 noundef %58) #10
  %60 = load ptr, ptr %4, align 8
  %61 = getelementptr inbounds %struct.Npn_Man_t_, ptr %60, i32 0, i32 0
  store ptr %59, ptr %61, align 8
  %62 = load ptr, ptr %4, align 8
  %63 = getelementptr inbounds %struct.Npn_Man_t_, ptr %62, i32 0, i32 3
  %64 = load i32, ptr %63, align 4
  %65 = sdiv i32 %64, 2
  %66 = call i32 @Abc_PrimeCudd(i32 noundef %65)
  %67 = load ptr, ptr %4, align 8
  %68 = getelementptr inbounds %struct.Npn_Man_t_, ptr %67, i32 0, i32 2
  store i32 %66, ptr %68, align 8
  %69 = load ptr, ptr %4, align 8
  %70 = getelementptr inbounds %struct.Npn_Man_t_, ptr %69, i32 0, i32 2
  %71 = load i32, ptr %70, align 8
  %72 = sext i32 %71 to i64
  %73 = call noalias ptr @calloc(i64 noundef %72, i64 noundef 4) #11
  %74 = load ptr, ptr %4, align 8
  %75 = getelementptr inbounds %struct.Npn_Man_t_, ptr %74, i32 0, i32 1
  store ptr %73, ptr %75, align 8
  %76 = load ptr, ptr %4, align 8
  %77 = getelementptr inbounds %struct.Npn_Man_t_, ptr %76, i32 0, i32 4
  store i32 1, ptr %77, align 8
  %78 = load ptr, ptr %4, align 8
  %79 = load ptr, ptr %3, align 8
  call void @Npn_ManRead(ptr noundef %78, ptr noundef %79)
  br label %80

80:                                               ; preds = %45, %9
  %81 = load ptr, ptr %4, align 8
  store ptr %81, ptr %2, align 8
  br label %82

82:                                               ; preds = %80, %43
  %83 = load ptr, ptr %2, align 8
  ret ptr %83
}