; Function Attrs: nounwind uwtable
define noalias noundef ptr @Npn_ManStart(ptr noundef %0) local_unnamed_addr #0 {
  %2 = tail call noalias dereferenceable_or_null(32) ptr @calloc(i64 noundef 1, i64 noundef 32) #23
  %3 = icmp eq ptr %0, null
  br i1 %3, label %4, label %19

4:                                                ; preds = %1
  %5 = getelementptr inbounds nuw i8, ptr %2, i64 20
  store i32 100, ptr %5, align 4
  %6 = tail call noalias dereferenceable_or_null(1600) ptr @malloc(i64 noundef 1600) #21
  store ptr %6, ptr %2, align 8
  br label %.loopexit.i

.loopexit.i:                                      ; preds = %.loopexit.i.backedge, %4
  %.012.i = phi i32 [ 49, %4 ], [ %7, %.loopexit.i.backedge ]
  %7 = add i32 %.012.i, 1
  %8 = and i32 %.012.i, 1
  %.not.not.i = icmp eq i32 %8, 0
  br i1 %.not.not.i, label %.preheader.i, label %.loopexit.i.backedge

.loopexit.i.backedge:                             ; preds = %.lr.ph.i, %.loopexit.i
  br label %.loopexit.i, !llvm.loop !6

.preheader.i:                                     ; preds = %.loopexit.i
  %.not15.i = icmp ult i32 %7, 9
  br i1 %.not15.i, label %Abc_PrimeCudd.exit, label %.lr.ph.i

9:                                                ; preds = %.lr.ph.i
  %10 = add nuw nsw i32 %.01116.i, 2
  %11 = mul nuw nsw i32 %10, %10
  %.not.i = icmp ugt i32 %11, %7
  br i1 %.not.i, label %Abc_PrimeCudd.exit, label %.lr.ph.i, !llvm.loop !7

.lr.ph.i:                                         ; preds = %.preheader.i, %9
  %.01116.i = phi i32 [ %10, %9 ], [ 3, %.preheader.i ]
  %12 = urem i32 %7, %.01116.i
  %13 = icmp eq i32 %12, 0
  br i1 %13, label %.loopexit.i.backedge, label %9, !llvm.loop !6

Abc_PrimeCudd.exit:                               ; preds = %.preheader.i, %9
  %14 = getelementptr inbounds nuw i8, ptr %2, i64 16
  store i32 %7, ptr %14, align 8
  %15 = sext i32 %7 to i64
  %16 = tail call noalias ptr @calloc(i64 noundef %15, i64 noundef 4) #23
  %17 = getelementptr inbounds nuw i8, ptr %2, i64 8
  store ptr %16, ptr %17, align 8
  %18 = getelementptr inbounds nuw i8, ptr %2, i64 24
  store i32 1, ptr %18, align 8
  br label %46

19:                                               ; preds = %1
  %20 = tail call noalias ptr @fopen(ptr noundef nonnull %0, ptr noundef nonnull @.str.1)
  %21 = icmp eq ptr %20, null
  br i1 %21, label %22, label %23

22:                                               ; preds = %19
  tail call void (i32, ptr, ...) @Abc_Print(i32 noundef -1, ptr noundef nonnull @.str.2, ptr noundef nonnull %0)
  br label %46

23:                                               ; preds = %19
  %24 = tail call i32 @fclose(ptr noundef nonnull %20)
  %25 = tail call i32 @Extra_FileSize(ptr noundef nonnull %0) #22
  %26 = sdiv i32 %25, 20
  %27 = shl nsw i32 %26, 2
  %28 = getelementptr inbounds nuw i8, ptr %2, i64 20
  store i32 %27, ptr %28, align 4
  %29 = sext i32 %27 to i64
  %30 = shl nsw i64 %29, 4
  %31 = tail call noalias ptr @malloc(i64 noundef %30) #21
  store ptr %31, ptr %2, align 8
  %32 = shl nsw i32 %26, 1
  %33 = add nsw i32 %32, -1
  br label %.loopexit.i31

.loopexit.i31:                                    ; preds = %.loopexit.i31.backedge, %23
  %.012.i29 = phi i32 [ %33, %23 ], [ %34, %.loopexit.i31.backedge ]
  %34 = add i32 %.012.i29, 1
  %35 = and i32 %.012.i29, 1
  %.not.not.i30 = icmp eq i32 %35, 0
  br i1 %.not.not.i30, label %.preheader.i32, label %.loopexit.i31.backedge

.loopexit.i31.backedge:                           ; preds = %.lr.ph.i34, %.loopexit.i31
  br label %.loopexit.i31, !llvm.loop !6

.preheader.i32:                                   ; preds = %.loopexit.i31
  %.not15.i33 = icmp ult i32 %34, 9
  br i1 %.not15.i33, label %Abc_PrimeCudd.exit37, label %.lr.ph.i34

36:                                               ; preds = %.lr.ph.i34
  %37 = add nuw nsw i32 %.01116.i35, 2
  %38 = mul nuw nsw i32 %37, %37
  %.not.i36 = icmp ugt i32 %38, %34
  br i1 %.not.i36, label %Abc_PrimeCudd.exit37, label %.lr.ph.i34, !llvm.loop !7

.lr.ph.i34:                                       ; preds = %.preheader.i32, %36
  %.01116.i35 = phi i32 [ %37, %36 ], [ 3, %.preheader.i32 ]
  %39 = urem i32 %34, %.01116.i35
  %40 = icmp eq i32 %39, 0
  br i1 %40, label %.loopexit.i31.backedge, label %36, !llvm.loop !6

Abc_PrimeCudd.exit37:                             ; preds = %.preheader.i32, %36
  %41 = getelementptr inbounds nuw i8, ptr %2, i64 16
  store i32 %34, ptr %41, align 8
  %42 = sext i32 %34 to i64
  %43 = tail call noalias ptr @calloc(i64 noundef %42, i64 noundef 4) #23
  %44 = getelementptr inbounds nuw i8, ptr %2, i64 8
  store ptr %43, ptr %44, align 8
  %45 = getelementptr inbounds nuw i8, ptr %2, i64 24
  store i32 1, ptr %45, align 8
  tail call void @Npn_ManRead(ptr noundef nonnull %2, ptr noundef nonnull %0)
  br label %46

46:                                               ; preds = %Abc_PrimeCudd.exit, %Abc_PrimeCudd.exit37, %22
  %.0 = phi ptr [ null, %22 ], [ %2, %Abc_PrimeCudd.exit37 ], [ %2, %Abc_PrimeCudd.exit ]
  ret ptr %.0
}